target datalayout = "e-m:e-p270:32:32-p271:32:32-p272:64:64-i64:64-i128:128-f80:128-n8:16:32:64-S128"
target triple = "x86_64-pc-linux-gnu"

%struct.object_id = type { [32 x i8], i32 }
%struct.patch = type { ptr, ptr, ptr, i32, i32, i32, i32, i32, i32, i32, i32, i32, i32, i16, ptr, ptr, i64, [65 x i8], [65 x i8], ptr, [3 x %struct.object_id] }

@.str.259 = private unnamed_addr constant [7 x i8] c"create\00", align 1
@.str.260 = private unnamed_addr constant [7 x i8] c"delete\00", align 1
@.str.261 = private unnamed_addr constant [20 x i8] c" rewrite %s (%d%%)\0A\00", align 1
@.str.262 = private unnamed_addr constant [18 x i8] c" %s mode %06o %s\0A\00", align 1
@.str.263 = private unnamed_addr constant [8 x i8] c" %s %s\0A\00", align 1
@.str.264 = private unnamed_addr constant [7 x i8] c"rename\00", align 1
@.str.265 = private unnamed_addr constant [5 x i8] c"copy\00", align 1
@.str.266 = private unnamed_addr constant [27 x i8] c" %s %.*s{%s => %s} (%d%%)\0A\00", align 1
@.str.267 = private unnamed_addr constant [21 x i8] c" %s %s => %s (%d%%)\0A\00", align 1
@.str.268 = private unnamed_addr constant [30 x i8] c" mode change %06o => %06o %s\0A\00", align 1
@.str.269 = private unnamed_addr constant [27 x i8] c" mode change %06o => %06o\0A\00", align 1

; Function Attrs: nounwind uwtable
define internal void @show_mode_change(ptr noundef %0, i32 noundef %1) #0 {
  %3 = alloca ptr, align 8
  %4 = alloca i32, align 4
  store ptr %0, ptr %3, align 8, !tbaa !60
  store i32 %1, ptr %4, align 4, !tbaa !39
  %5 = load ptr, ptr %3, align 8, !tbaa !60
  %6 = getelementptr inbounds nuw %struct.patch, ptr %5, i32 0, i32 3
  %7 = load i32, ptr %6, align 8, !tbaa !200
  %8 = icmp ne i32 %7, 0
  br i1 %8, label %9, label %45

9:                                                ; preds = %2
  %10 = load ptr, ptr %3, align 8, !tbaa !60
  %11 = getelementptr inbounds nuw %struct.patch, ptr %10, i32 0, i32 4
  %12 = load i32, ptr %11, align 4, !tbaa !166
  %13 = icmp ne i32 %12, 0
  br i1 %13, label %14, label %45

14:                                               ; preds = %9
  %15 = load ptr, ptr %3, align 8, !tbaa !60
  %16 = getelementptr inbounds nuw %struct.patch, ptr %15, i32 0, i32 3
  %17 = load i32, ptr %16, align 8, !tbaa !200
  %18 = load ptr, ptr %3, align 8, !tbaa !60
  %19 = getelementptr inbounds nuw %struct.patch, ptr %18, i32 0, i32 4
  %20 = load i32, ptr %19, align 4, !tbaa !166
  %21 = icmp ne i32 %17, %20
  br i1 %21, label %22, label %45

22:                                               ; preds = %14
  %23 = load i32, ptr %4, align 4, !tbaa !39
  %24 = icmp ne i32 %23, 0
  br i1 %24, label %25, label %36

25:                                               ; preds = %22
  %26 = load ptr, ptr %3, align 8, !tbaa !60
  %27 = getelementptr inbounds nuw %struct.patch, ptr %26, i32 0, i32 3
  %28 = load i32, ptr %27, align 8, !tbaa !200
  %29 = load ptr, ptr %3, align 8, !tbaa !60
  %30 = getelementptr inbounds nuw %struct.patch, ptr %29, i32 0, i32 4
  %31 = load i32, ptr %30, align 4, !tbaa !166
  %32 = load ptr, ptr %3, align 8, !tbaa !60
  %33 = getelementptr inbounds nuw %struct.patch, ptr %32, i32 0, i32 0
  %34 = load ptr, ptr %33, align 8, !tbaa !67
  %35 = call i32 (ptr, ...) @printf(ptr noundef @.str.268, i32 noundef %28, i32 noundef %31, ptr noundef %34)
  br label %44

36:                                               ; preds = %22
  %37 = load ptr, ptr %3, align 8, !tbaa !60
  %38 = getelementptr inbounds nuw %struct.patch, ptr %37, i32 0, i32 3
  %39 = load i32, ptr %38, align 8, !tbaa !200
  %40 = load ptr, ptr %3, align 8, !tbaa !60
  %41 = getelementptr inbounds nuw %struct.patch, ptr %40, i32 0, i32 4
  %42 = load i32, ptr %41, align 4, !tbaa !166
  %43 = call i32 (ptr, ...) @printf(ptr noundef @.str.269, i32 noundef %39, i32 noundef %42)
  br label %44

44:                                               ; preds = %36, %25
  br label %45

45:                                               ; preds = %44, %14, %9, %2
  ret void
}

; Function Attrs: nounwind uwtable
define internal void @show_rename_copy(ptr noundef %0) #0 {
  %2 = alloca ptr, align 8
  %3 = alloca ptr, align 8
  %4 = alloca ptr, align 8
  %5 = alloca ptr, align 8
  %6 = alloca ptr, align 8
  %7 = alloca ptr, align 8
  %8 = alloca i32, align 4
  store ptr %0, ptr %2, align 8, !tbaa !60
  call void @llvm.lifetime.start.p0(i64 8, ptr %3) #12
  %9 = load ptr, ptr %2, align 8, !tbaa !60
  %10 = getelementptr inbounds nuw %struct.patch, ptr %9, i32 0, i32 13
  %11 = load i16, ptr %10, align 8
  %12 = lshr i16 %11, 4
  %13 = and i16 %12, 1
  %14 = zext i16 %13 to i32
  %15 = icmp ne i32 %14, 0
  %16 = select i1 %15, ptr @.str.264, ptr @.str.265
  store ptr %16, ptr %3, align 8, !tbaa !11
  call void @llvm.lifetime.start.p0(i64 8, ptr %4) #12
  call void @llvm.lifetime.start.p0(i64 8, ptr %5) #12
  %17 = load ptr, ptr %2, align 8, !tbaa !60
  %18 = getelementptr inbounds nuw %struct.patch, ptr %17, i32 0, i32 1
  %19 = load ptr, ptr %18, align 8, !tbaa !66
  store ptr %19, ptr %4, align 8, !tbaa !11
  %20 = load ptr, ptr %2, align 8, !tbaa !60
  %21 = getelementptr inbounds nuw %struct.patch, ptr %20, i32 0, i32 0
  %22 = load ptr, ptr %21, align 8, !tbaa !67
  store ptr %22, ptr %5, align 8, !tbaa !11
  br label %23

23:                                               ; preds = %64, %1
  br label %24

24:                                               ; preds = %23
  call void @llvm.lifetime.start.p0(i64 8, ptr %6) #12
  call void @llvm.lifetime.start.p0(i64 8, ptr %7) #12
  %25 = load ptr, ptr %4, align 8, !tbaa !11
  %26 = call ptr @strchr(ptr noundef %25, i32 noundef 47) #11
  store ptr %26, ptr %6, align 8, !tbaa !11
  %27 = load ptr, ptr %5, align 8, !tbaa !11
  %28 = call ptr @strchr(ptr noundef %27, i32 noundef 47) #11
  store ptr %28, ptr %7, align 8, !tbaa !11
  %29 = load ptr, ptr %6, align 8, !tbaa !11
  %30 = icmp ne ptr %29, null
  br i1 %30, label %31, label %56

31:                                               ; preds = %24
  %32 = load ptr, ptr %7, align 8, !tbaa !11
  %33 = icmp ne ptr %32, null
  br i1 %33, label %34, label %56

34:                                               ; preds = %31
  %35 = load ptr, ptr %6, align 8, !tbaa !11
  %36 = load ptr, ptr %4, align 8, !tbaa !11
  %37 = ptrtoint ptr %35 to i64
  %38 = ptrtoint ptr %36 to i64
  %39 = sub i64 %37, %38
  %40 = load ptr, ptr %7, align 8, !tbaa !11
  %41 = load ptr, ptr %5, align 8, !tbaa !11
  %42 = ptrtoint ptr %40 to i64
  %43 = ptrtoint ptr %41 to i64
  %44 = sub i64 %42, %43
  %45 = icmp ne i64 %39, %44
  br i1 %45, label %56, label %46

46:                                               ; preds = %34
  %47 = load ptr, ptr %4, align 8, !tbaa !11
  %48 = load ptr, ptr %5, align 8, !tbaa !11
  %49 = load ptr, ptr %7, align 8, !tbaa !11
  %50 = load ptr, ptr %5, align 8, !tbaa !11
  %51 = ptrtoint ptr %49 to i64
  %52 = ptrtoint ptr %50 to i64
  %53 = sub i64 %51, %52
  %54 = call i32 @memcmp(ptr noundef %47, ptr noundef %48, i64 noundef %53) #11
  %55 = icmp ne i32 %54, 0
  br i1 %55, label %56, label %57

56:                                               ; preds = %46, %34, %31, %24
  store i32 3, ptr %8, align 4
  br label %62

57:                                               ; preds = %46
  %58 = load ptr, ptr %6, align 8, !tbaa !11
  %59 = getelementptr inbounds i8, ptr %58, i64 1
  store ptr %59, ptr %4, align 8, !tbaa !11
  %60 = load ptr, ptr %7, align 8, !tbaa !11
  %61 = getelementptr inbounds i8, ptr %60, i64 1
  store ptr %61, ptr %5, align 8, !tbaa !11
  store i32 0, ptr %8, align 4
  br label %62

62:                                               ; preds = %57, %56
  call void @llvm.lifetime.end.p0(i64 8, ptr %7) #12
  call void @llvm.lifetime.end.p0(i64 8, ptr %6) #12
  %63 = load i32, ptr %8, align 4
  switch i32 %63, label %104 [
    i32 0, label %64
    i32 3, label %65
  ]

64:                                               ; preds = %62
  br label %23

65:                                               ; preds = %62
  %66 = load ptr, ptr %4, align 8, !tbaa !11
  %67 = load ptr, ptr %2, align 8, !tbaa !60
  %68 = getelementptr inbounds nuw %struct.patch, ptr %67, i32 0, i32 1
  %69 = load ptr, ptr %68, align 8, !tbaa !66
  %70 = icmp ne ptr %66, %69
  br i1 %70, label %71, label %90

71:                                               ; preds = %65
  %72 = load ptr, ptr %3, align 8, !tbaa !11
  %73 = load ptr, ptr %4, align 8, !tbaa !11
  %74 = load ptr, ptr %2, align 8, !tbaa !60
  %75 = getelementptr inbounds nuw %struct.patch, ptr %74, i32 0, i32 1
  %76 = load ptr, ptr %75, align 8, !tbaa !66
  %77 = ptrtoint ptr %73 to i64
  %78 = ptrtoint ptr %76 to i64
  %79 = sub i64 %77, %78
  %80 = trunc i64 %79 to i32
  %81 = load ptr, ptr %2, align 8, !tbaa !60
  %82 = getelementptr inbounds nuw %struct.patch, ptr %81, i32 0, i32 1
  %83 = load ptr, ptr %82, align 8, !tbaa !66
  %84 = load ptr, ptr %4, align 8, !tbaa !11
  %85 = load ptr, ptr %5, align 8, !tbaa !11
  %86 = load ptr, ptr %2, align 8, !tbaa !60
  %87 = getelementptr inbounds nuw %struct.patch, ptr %86, i32 0, i32 11
  %88 = load i32, ptr %87, align 8, !tbaa !99
  %89 = call i32 (ptr, ...) @printf(ptr noundef @.str.266, ptr noundef %72, i32 noundef %80, ptr noundef %83, ptr noundef %84, ptr noundef %85, i32 noundef %88)
  br label %102

90:                                               ; preds = %65
  %91 = load ptr, ptr %3, align 8, !tbaa !11
  %92 = load ptr, ptr %2, align 8, !tbaa !60
  %93 = getelementptr inbounds nuw %struct.patch, ptr %92, i32 0, i32 1
  %94 = load ptr, ptr %93, align 8, !tbaa !66
  %95 = load ptr, ptr %2, align 8, !tbaa !60
  %96 = getelementptr inbounds nuw %struct.patch, ptr %95, i32 0, i32 0
  %97 = load ptr, ptr %96, align 8, !tbaa !67
  %98 = load ptr, ptr %2, align 8, !tbaa !60
  %99 = getelementptr inbounds nuw %struct.patch, ptr %98, i32 0, i32 11
  %100 = load i32, ptr %99, align 8, !tbaa !99
  %101 = call i32 (ptr, ...) @printf(ptr noundef @.str.267, ptr noundef %91, ptr noundef %94, ptr noundef %97, i32 noundef %100)
  br label %102

102:                                              ; preds = %90, %71
  %103 = load ptr, ptr %2, align 8, !tbaa !60
  call void @show_mode_change(ptr noundef %103, i32 noundef 0)
  call void @llvm.lifetime.end.p0(i64 8, ptr %5) #12
  call void @llvm.lifetime.end.p0(i64 8, ptr %4) #12
  call void @llvm.lifetime.end.p0(i64 8, ptr %3) #12
  ret void

104:                                              ; preds = %62
  unreachable
}

; Function Attrs: nounwind uwtable
define internal void @show_file_mode_name(ptr noundef %0, i32 noundef %1, ptr noundef %2) #0 {
  %4 = alloca ptr, align 8
  %5 = alloca i32, align 4
  %6 = alloca ptr, align 8
  store ptr %0, ptr %4, align 8, !tbaa !11
  store i32 %1, ptr %5, align 4, !tbaa !39
  store ptr %2, ptr %6, align 8, !tbaa !11
  %7 = load i32, ptr %5, align 4, !tbaa !39
  %8 = icmp ne i32 %7, 0
  br i1 %8, label %9, label %14

9:                                                ; preds = %3
  %10 = load ptr, ptr %4, align 8, !tbaa !11
  %11 = load i32, ptr %5, align 4, !tbaa !39
  %12 = load ptr, ptr %6, align 8, !tbaa !11
  %13 = call i32 (ptr, ...) @printf(ptr noundef @.str.262, ptr noundef %10, i32 noundef %11, ptr noundef %12)
  br label %18

14:                                               ; preds = %3
  %15 = load ptr, ptr %4, align 8, !tbaa !11
  %16 = load ptr, ptr %6, align 8, !tbaa !11
  %17 = call i32 (ptr, ...) @printf(ptr noundef @.str.263, ptr noundef %15, ptr noundef %16)
  br label %18

18:                                               ; preds = %14, %9
  ret void
}

; Function Attrs: nounwind uwtable
define internal void @summary_patch_list(ptr noundef %0) #0 {
  %2 = alloca ptr, align 8
  %3 = alloca ptr, align 8
  store ptr %0, ptr %2, align 8, !tbaa !60
  call void @llvm.lifetime.start.p0(i64 8, ptr %3) #12
  %4 = load ptr, ptr %2, align 8, !tbaa !60
  store ptr %4, ptr %3, align 8, !tbaa !60
  br label %5

5:                                                ; preds = %70, %1
  %6 = load ptr, ptr %3, align 8, !tbaa !60
  %7 = icmp ne ptr %6, null
  br i1 %7, label %8, label %74

8:                                                ; preds = %5
  %9 = load ptr, ptr %3, align 8, !tbaa !60
  %10 = getelementptr inbounds nuw %struct.patch, ptr %9, i32 0, i32 5
  %11 = load i32, ptr %10, align 8, !tbaa !79
  %12 = icmp ne i32 %11, 0
  br i1 %12, label %13, label %20

13:                                               ; preds = %8
  %14 = load ptr, ptr %3, align 8, !tbaa !60
  %15 = getelementptr inbounds nuw %struct.patch, ptr %14, i32 0, i32 4
  %16 = load i32, ptr %15, align 4, !tbaa !166
  %17 = load ptr, ptr %3, align 8, !tbaa !60
  %18 = getelementptr inbounds nuw %struct.patch, ptr %17, i32 0, i32 0
  %19 = load ptr, ptr %18, align 8, !tbaa !67
  call void @show_file_mode_name(ptr noundef @.str.259, i32 noundef %16, ptr noundef %19)
  br label %69

20:                                               ; preds = %8
  %21 = load ptr, ptr %3, align 8, !tbaa !60
  %22 = getelementptr inbounds nuw %struct.patch, ptr %21, i32 0, i32 6
  %23 = load i32, ptr %22, align 4, !tbaa !80
  %24 = icmp ne i32 %23, 0
  br i1 %24, label %25, label %32

25:                                               ; preds = %20
  %26 = load ptr, ptr %3, align 8, !tbaa !60
  %27 = getelementptr inbounds nuw %struct.patch, ptr %26, i32 0, i32 3
  %28 = load i32, ptr %27, align 8, !tbaa !200
  %29 = load ptr, ptr %3, align 8, !tbaa !60
  %30 = getelementptr inbounds nuw %struct.patch, ptr %29, i32 0, i32 1
  %31 = load ptr, ptr %30, align 8, !tbaa !66
  call void @show_file_mode_name(ptr noundef @.str.260, i32 noundef %28, ptr noundef %31)
  br label %68

32:                                               ; preds = %20
  %33 = load ptr, ptr %3, align 8, !tbaa !60
  %34 = getelementptr inbounds nuw %struct.patch, ptr %33, i32 0, i32 13
  %35 = load i16, ptr %34, align 8
  %36 = lshr i16 %35, 4
  %37 = and i16 %36, 1
  %38 = zext i16 %37 to i32
  %39 = icmp ne i32 %38, 0
  br i1 %39, label %48, label %40

40:                                               ; preds = %32
  %41 = load ptr, ptr %3, align 8, !tbaa !60
  %42 = getelementptr inbounds nuw %struct.patch, ptr %41, i32 0, i32 13
  %43 = load i16, ptr %42, align 8
  %44 = lshr i16 %43, 3
  %45 = and i16 %44, 1
  %46 = zext i16 %45 to i32
  %47 = icmp ne i32 %46, 0
  br i1 %47, label %48, label %50

48:                                               ; preds = %40, %32
  %49 = load ptr, ptr %3, align 8, !tbaa !60
  call void @show_rename_copy(ptr noundef %49)
  br label %67

50:                                               ; preds = %40
  %51 = load ptr, ptr %3, align 8, !tbaa !60
  %52 = getelementptr inbounds nuw %struct.patch, ptr %51, i32 0, i32 11
  %53 = load i32, ptr %52, align 8, !tbaa !99
  %54 = icmp ne i32 %53, 0
  br i1 %54, label %55, label %64

55:                                               ; preds = %50
  %56 = load ptr, ptr %3, align 8, !tbaa !60
  %57 = getelementptr inbounds nuw %struct.patch, ptr %56, i32 0, i32 0
  %58 = load ptr, ptr %57, align 8, !tbaa !67
  %59 = load ptr, ptr %3, align 8, !tbaa !60
  %60 = getelementptr inbounds nuw %struct.patch, ptr %59, i32 0, i32 11
  %61 = load i32, ptr %60, align 8, !tbaa !99
  %62 = call i32 (ptr, ...) @printf(ptr noundef @.str.261, ptr noundef %58, i32 noundef %61)
  %63 = load ptr, ptr %3, align 8, !tbaa !60
  call void @show_mode_change(ptr noundef %63, i32 noundef 0)
  br label %66

64:                                               ; preds = %50
  %65 = load ptr, ptr %3, align 8, !tbaa !60
  call void @show_mode_change(ptr noundef %65, i32 noundef 1)
  br label %66

66:                                               ; preds = %64, %55
  br label %67

67:                                               ; preds = %66, %48
  br label %68

68:                                               ; preds = %67, %25
  br label %69

69:                                               ; preds = %68, %13
  br label %70

70:                                               ; preds = %69
  %71 = load ptr, ptr %3, align 8, !tbaa !60
  %72 = getelementptr inbounds nuw %struct.patch, ptr %71, i32 0, i32 19
  %73 = load ptr, ptr %72, align 8, !tbaa !130
  store ptr %73, ptr %3, align 8, !tbaa !60
  br label %5, !llvm.loop !206

74:                                               ; preds = %5
  call void @llvm.lifetime.end.p0(i64 8, ptr %3) #12
  ret void
}