; Function Attrs: nofree nounwind uwtable
define internal fastcc void @summary_patch_list(ptr noundef readonly %0) unnamed_addr #17 {
  %.not33 = icmp eq ptr %0, null
  br i1 %.not33, label %._crit_edge, label %.lr.ph

.lr.ph:                                           ; preds = %1, %show_file_mode_name.exit
  %.034 = phi ptr [ %96, %show_file_mode_name.exit ], [ %0, %1 ]
  %2 = getelementptr inbounds nuw i8, ptr %.034, i64 32
  %3 = load i32, ptr %2, align 8, !tbaa !67
  %.not18 = icmp eq i32 %3, 0
  br i1 %.not18, label %12, label %4

4:                                                ; preds = %.lr.ph
  %5 = getelementptr inbounds nuw i8, ptr %.034, i64 28
  %6 = load i32, ptr %5, align 4, !tbaa !112
  %7 = load ptr, ptr %.034, align 8, !tbaa !65
  %.not.i = icmp eq i32 %6, 0
  br i1 %.not.i, label %10, label %8

8:                                                ; preds = %4
  %9 = tail call i32 (ptr, ...) @printf(ptr noundef nonnull dereferenceable(1) @.str.262, ptr noundef nonnull @.str.259, i32 noundef %6, ptr noundef %7)
  br label %show_file_mode_name.exit

10:                                               ; preds = %4
  %11 = tail call i32 (ptr, ...) @printf(ptr noundef nonnull dereferenceable(1) @.str.263, ptr noundef nonnull @.str.259, ptr noundef %7)
  br label %show_file_mode_name.exit

12:                                               ; preds = %.lr.ph
  %13 = getelementptr inbounds nuw i8, ptr %.034, i64 36
  %14 = load i32, ptr %13, align 4, !tbaa !68
  %.not19 = icmp eq i32 %14, 0
  br i1 %.not19, label %24, label %15

15:                                               ; preds = %12
  %16 = getelementptr inbounds nuw i8, ptr %.034, i64 24
  %17 = load i32, ptr %16, align 8, !tbaa !113
  %18 = getelementptr inbounds nuw i8, ptr %.034, i64 8
  %19 = load ptr, ptr %18, align 8, !tbaa !64
  %.not.i23 = icmp eq i32 %17, 0
  br i1 %.not.i23, label %22, label %20

20:                                               ; preds = %15
  %21 = tail call i32 (ptr, ...) @printf(ptr noundef nonnull dereferenceable(1) @.str.262, ptr noundef nonnull @.str.260, i32 noundef %17, ptr noundef %19)
  br label %show_file_mode_name.exit

22:                                               ; preds = %15
  %23 = tail call i32 (ptr, ...) @printf(ptr noundef nonnull dereferenceable(1) @.str.263, ptr noundef nonnull @.str.260, ptr noundef %19)
  br label %show_file_mode_name.exit

24:                                               ; preds = %12
  %25 = getelementptr inbounds nuw i8, ptr %.034, i64 64
  %26 = load i16, ptr %25, align 8
  %27 = and i16 %26, 24
  %or.cond = icmp eq i16 %27, 0
  br i1 %or.cond, label %73, label %28

28:                                               ; preds = %24
  %29 = and i16 %26, 16
  %.not20 = icmp eq i16 %29, 0
  %30 = select i1 %.not20, ptr @.str.265, ptr @.str.264
  %31 = getelementptr inbounds nuw i8, ptr %.034, i64 8
  %32 = load ptr, ptr %31, align 8, !tbaa !64
  %33 = load ptr, ptr %.034, align 8, !tbaa !65
  %34 = tail call ptr @strchr(ptr noundef nonnull dereferenceable(1) %32, i32 noundef 47) #22
  %35 = tail call ptr @strchr(ptr noundef nonnull dereferenceable(1) %33, i32 noundef 47) #22
  %36 = icmp ne ptr %34, null
  %37 = icmp ne ptr %35, null
  %or.cond49.i = select i1 %36, i1 %37, i1 false
  br i1 %or.cond49.i, label %.lr.ph.i, label %._crit_edge.thread.i

.lr.ph.i:                                         ; preds = %28, %47
  %38 = phi ptr [ %51, %47 ], [ %35, %28 ]
  %39 = phi ptr [ %50, %47 ], [ %34, %28 ]
  %.03251.i = phi ptr [ %48, %47 ], [ %32, %28 ]
  %.03350.i = phi ptr [ %49, %47 ], [ %33, %28 ]
  %40 = ptrtoint ptr %39 to i64
  %41 = ptrtoint ptr %.03251.i to i64
  %42 = sub i64 %40, %41
  %43 = ptrtoint ptr %38 to i64
  %44 = ptrtoint ptr %.03350.i to i64
  %45 = sub i64 %43, %44
  %.not40.i = icmp eq i64 %42, %45
  br i1 %.not40.i, label %46, label %._crit_edge.i

46:                                               ; preds = %.lr.ph.i
  %bcmp.i = tail call i32 @bcmp(ptr nonnull %.03251.i, ptr nonnull %.03350.i, i64 %42)
  %.not41.i = icmp eq i32 %bcmp.i, 0
  br i1 %.not41.i, label %47, label %._crit_edge.i

47:                                               ; preds = %46
  %48 = getelementptr inbounds nuw i8, ptr %39, i64 1
  %49 = getelementptr inbounds nuw i8, ptr %38, i64 1
  %50 = tail call ptr @strchr(ptr noundef nonnull dereferenceable(1) %48, i32 noundef 47) #22
  %51 = tail call ptr @strchr(ptr noundef nonnull dereferenceable(1) %49, i32 noundef 47) #22
  %52 = icmp ne ptr %50, null
  %53 = icmp ne ptr %51, null
  %or.cond.i = select i1 %52, i1 %53, i1 false
  br i1 %or.cond.i, label %.lr.ph.i, label %._crit_edge.i

._crit_edge.i:                                    ; preds = %47, %46, %.lr.ph.i
  %.033.lcssa.i = phi ptr [ %49, %47 ], [ %.03350.i, %.lr.ph.i ], [ %.03350.i, %46 ]
  %.032.lcssa.i = phi ptr [ %48, %47 ], [ %.03251.i, %.lr.ph.i ], [ %.03251.i, %46 ]
  %.not42.i = icmp eq ptr %.032.lcssa.i, %32
  br i1 %.not42.i, label %._crit_edge.thread.i, label %54

54:                                               ; preds = %._crit_edge.i
  %55 = ptrtoint ptr %.032.lcssa.i to i64
  %56 = ptrtoint ptr %32 to i64
  %57 = sub i64 %55, %56
  %58 = trunc i64 %57 to i32
  %59 = getelementptr inbounds nuw i8, ptr %.034, i64 56
  %60 = load i32, ptr %59, align 8, !tbaa !86
  %61 = tail call i32 (ptr, ...) @printf(ptr noundef nonnull dereferenceable(1) @.str.266, ptr noundef nonnull %30, i32 noundef %58, ptr noundef nonnull %32, ptr noundef nonnull %.032.lcssa.i, ptr noundef nonnull %.033.lcssa.i, i32 noundef %60)
  br label %65

._crit_edge.thread.i:                             ; preds = %._crit_edge.i, %28
  %62 = getelementptr inbounds nuw i8, ptr %.034, i64 56
  %63 = load i32, ptr %62, align 8, !tbaa !86
  %64 = tail call i32 (ptr, ...) @printf(ptr noundef nonnull dereferenceable(1) @.str.267, ptr noundef nonnull %30, ptr noundef nonnull %32, ptr noundef nonnull %33, i32 noundef %63)
  br label %65

65:                                               ; preds = %._crit_edge.thread.i, %54
  %66 = getelementptr inbounds nuw i8, ptr %.034, i64 24
  %67 = load i32, ptr %66, align 8, !tbaa !113
  %.not.i.i = icmp eq i32 %67, 0
  br i1 %.not.i.i, label %show_file_mode_name.exit, label %68

68:                                               ; preds = %65
  %69 = getelementptr inbounds nuw i8, ptr %.034, i64 28
  %70 = load i32, ptr %69, align 4, !tbaa !112
  %.not10.i.i = icmp eq i32 %70, 0
  %.not11.i.i = icmp eq i32 %67, %70
  %or.cond.i.i = or i1 %.not10.i.i, %.not11.i.i
  br i1 %or.cond.i.i, label %show_file_mode_name.exit, label %71

71:                                               ; preds = %68
  %72 = tail call i32 (ptr, ...) @printf(ptr noundef nonnull dereferenceable(1) @.str.269, i32 noundef %67, i32 noundef %70)
  br label %show_file_mode_name.exit

73:                                               ; preds = %24
  %74 = getelementptr inbounds nuw i8, ptr %.034, i64 56
  %75 = load i32, ptr %74, align 8, !tbaa !86
  %.not22 = icmp eq i32 %75, 0
  br i1 %.not22, label %86, label %76

76:                                               ; preds = %73
  %77 = load ptr, ptr %.034, align 8, !tbaa !65
  %78 = tail call i32 (ptr, ...) @printf(ptr noundef nonnull dereferenceable(1) @.str.261, ptr noundef %77, i32 noundef %75)
  %79 = getelementptr inbounds nuw i8, ptr %.034, i64 24
  %80 = load i32, ptr %79, align 8, !tbaa !113
  %.not.i26 = icmp eq i32 %80, 0
  br i1 %.not.i26, label %show_file_mode_name.exit, label %81

81:                                               ; preds = %76
  %82 = getelementptr inbounds nuw i8, ptr %.034, i64 28
  %83 = load i32, ptr %82, align 4, !tbaa !112
  %.not10.i = icmp eq i32 %83, 0
  %.not11.i = icmp eq i32 %80, %83
  %or.cond.i27 = or i1 %.not10.i, %.not11.i
  br i1 %or.cond.i27, label %show_file_mode_name.exit, label %84

84:                                               ; preds = %81
  %85 = tail call i32 (ptr, ...) @printf(ptr noundef nonnull dereferenceable(1) @.str.269, i32 noundef %80, i32 noundef %83)
  br label %show_file_mode_name.exit

86:                                               ; preds = %73
  %87 = getelementptr inbounds nuw i8, ptr %.034, i64 24
  %88 = load i32, ptr %87, align 8, !tbaa !113
  %.not.i28 = icmp eq i32 %88, 0
  br i1 %.not.i28, label %show_file_mode_name.exit, label %89

89:                                               ; preds = %86
  %90 = getelementptr inbounds nuw i8, ptr %.034, i64 28
  %91 = load i32, ptr %90, align 4, !tbaa !112
  %.not10.i29 = icmp eq i32 %91, 0
  %.not11.i30 = icmp eq i32 %88, %91
  %or.cond.i31 = or i1 %.not10.i29, %.not11.i30
  br i1 %or.cond.i31, label %show_file_mode_name.exit, label %92

92:                                               ; preds = %89
  %93 = load ptr, ptr %.034, align 8, !tbaa !65
  %94 = tail call i32 (ptr, ...) @printf(ptr noundef nonnull dereferenceable(1) @.str.268, i32 noundef %88, i32 noundef %91, ptr noundef %93)
  br label %show_file_mode_name.exit

show_file_mode_name.exit:                         ; preds = %92, %89, %86, %84, %81, %76, %71, %68, %65, %22, %20, %10, %8
  %95 = getelementptr inbounds nuw i8, ptr %.034, i64 232
  %96 = load ptr, ptr %95, align 8, !tbaa !141
  %.not = icmp eq ptr %96, null
  br i1 %.not, label %._crit_edge, label %.lr.ph, !llvm.loop !216

._crit_edge:                                      ; preds = %show_file_mode_name.exit, %1
  ret void
}